; Function Attrs: mustprogress uwtable
define void @_ZNK7rocksdb9cassandra6Column9SerializeEPNSt7__cxx1112basic_stringIcSt11char_traitsIcESaIcEEE(ptr noundef nonnull readonly align 8 captures(none) dereferenceable(40) %0, ptr noundef nonnull %1) unnamed_addr #3 align 2 personality ptr @__gxx_personality_v0 {
  %3 = getelementptr inbounds nuw i8, ptr %0, i64 8
  %4 = load i8, ptr %3, align 8, !tbaa !7
  %5 = getelementptr inbounds nuw i8, ptr %1, i64 8
  %6 = load i64, ptr %5, align 8, !tbaa !11
  %7 = tail call noundef nonnull align 8 dereferenceable(32) ptr @_ZNSt7__cxx1112basic_stringIcSt11char_traitsIcESaIcEE14_M_replace_auxEmmmc(ptr noundef nonnull align 8 dereferenceable(32) %1, i64 noundef %6, i64 noundef 0, i64 noundef 1, i8 noundef signext %4)
  %8 = getelementptr inbounds nuw i8, ptr %0, i64 9
  %9 = load i8, ptr %8, align 1, !tbaa !10
  %10 = load i64, ptr %5, align 8, !tbaa !11
  %11 = tail call noundef nonnull align 8 dereferenceable(32) ptr @_ZNSt7__cxx1112basic_stringIcSt11char_traitsIcESaIcEE14_M_replace_auxEmmmc(ptr noundef nonnull align 8 dereferenceable(32) %1, i64 noundef %10, i64 noundef 0, i64 noundef 1, i8 noundef signext %9)
  %12 = getelementptr inbounds nuw i8, ptr %0, i64 16
  %13 = load i64, ptr %12, align 8, !tbaa !73
  br label %14

14:                                               ; preds = %14, %2
  %.04.i = phi i64 [ 0, %2 ], [ %21, %14 ]
  %15 = shl nuw nsw i64 %.04.i, 3
  %16 = sub nuw nsw i64 56, %15
  %17 = ashr i64 %13, %16
  %18 = trunc i64 %17 to i8
  %19 = load i64, ptr %5, align 8, !tbaa !11
  %20 = tail call noundef nonnull align 8 dereferenceable(32) ptr @_ZNSt7__cxx1112basic_stringIcSt11char_traitsIcESaIcEE14_M_replace_auxEmmmc(ptr noundef nonnull align 8 dereferenceable(32) %1, i64 noundef %19, i64 noundef 0, i64 noundef 1, i8 noundef signext %18)
  %21 = add nuw nsw i64 %.04.i, 1
  %exitcond.not.i = icmp eq i64 %21, 8
  br i1 %exitcond.not.i, label %_ZN7rocksdb9cassandra9SerializeIlEEvT_PNSt7__cxx1112basic_stringIcSt11char_traitsIcESaIcEEE.exit, label %14, !llvm.loop !77

_ZN7rocksdb9cassandra9SerializeIlEEvT_PNSt7__cxx1112basic_stringIcSt11char_traitsIcESaIcEEE.exit: ; preds = %14
  %22 = getelementptr inbounds nuw i8, ptr %0, i64 24
  %23 = load i32, ptr %22, align 8, !tbaa !75
  br label %24

24:                                               ; preds = %24, %_ZN7rocksdb9cassandra9SerializeIlEEvT_PNSt7__cxx1112basic_stringIcSt11char_traitsIcESaIcEEE.exit
  %.04.i5 = phi i64 [ 0, %_ZN7rocksdb9cassandra9SerializeIlEEvT_PNSt7__cxx1112basic_stringIcSt11char_traitsIcESaIcEEE.exit ], [ %31, %24 ]
  %.0.tr.i = trunc nuw i64 %.04.i5 to i32
  %25 = shl nuw nsw i32 %.0.tr.i, 3
  %26 = sub nuw nsw i32 24, %25
  %27 = ashr i32 %23, %26
  %28 = trunc i32 %27 to i8
  %29 = load i64, ptr %5, align 8, !tbaa !11
  %30 = tail call noundef nonnull align 8 dereferenceable(32) ptr @_ZNSt7__cxx1112basic_stringIcSt11char_traitsIcESaIcEE14_M_replace_auxEmmmc(ptr noundef nonnull align 8 dereferenceable(32) %1, i64 noundef %29, i64 noundef 0, i64 noundef 1, i8 noundef signext %28)
  %31 = add nuw nsw i64 %.04.i5, 1
  %exitcond.not.i6 = icmp eq i64 %31, 4
  br i1 %exitcond.not.i6, label %_ZN7rocksdb9cassandra9SerializeIiEEvT_PNSt7__cxx1112basic_stringIcSt11char_traitsIcESaIcEEE.exit, label %24, !llvm.loop !78

_ZN7rocksdb9cassandra9SerializeIiEEvT_PNSt7__cxx1112basic_stringIcSt11char_traitsIcESaIcEEE.exit: ; preds = %24
  %32 = load i32, ptr %22, align 8, !tbaa !75
  %33 = sext i32 %32 to i64
  %34 = load i64, ptr %5, align 8, !tbaa !11
  %35 = sub i64 4611686018427387903, %34
  %36 = icmp ult i64 %35, %33
  br i1 %36, label %37, label %_ZNSt7__cxx1112basic_stringIcSt11char_traitsIcESaIcEE6appendEPKcm.exit

37:                                               ; preds = %_ZN7rocksdb9cassandra9SerializeIiEEvT_PNSt7__cxx1112basic_stringIcSt11char_traitsIcESaIcEEE.exit
  tail call void @_ZSt20__throw_length_errorPKc(ptr noundef nonnull @.str) #27
  unreachable

_ZNSt7__cxx1112basic_stringIcSt11char_traitsIcESaIcEE6appendEPKcm.exit: ; preds = %_ZN7rocksdb9cassandra9SerializeIiEEvT_PNSt7__cxx1112basic_stringIcSt11char_traitsIcESaIcEEE.exit
  %38 = getelementptr inbounds nuw i8, ptr %0, i64 32
  %39 = load ptr, ptr %38, align 8, !tbaa !76
  %40 = tail call noundef nonnull align 8 dereferenceable(32) ptr @_ZNSt7__cxx1112basic_stringIcSt11char_traitsIcESaIcEE9_M_appendEPKcm(ptr noundef nonnull align 8 dereferenceable(32) %1, ptr noundef %39, i64 noundef %33)
  ret void
}